target datalayout = "e-m:e-p270:32:32-p271:32:32-p272:64:64-i64:64-i128:128-f80:128-n8:16:32:64-S128"
target triple = "x86_64-pc-linux-gnu"

@.str.1 = private unnamed_addr constant [9 x i8] c"encode.c\00", align 1
@.str.11 = private unnamed_addr constant [46 x i8] c"unexpected \22=\22 while decoding base64 sequence\00", align 1
@__func__.pg_base64_decode = private unnamed_addr constant [17 x i8] c"pg_base64_decode\00", align 1
@.str.12 = private unnamed_addr constant [59 x i8] c"invalid symbol \22%.*s\22 found while decoding base64 sequence\00", align 1
@.str.13 = private unnamed_addr constant [28 x i8] c"invalid base64 end sequence\00", align 1
@.str.14 = private unnamed_addr constant [72 x i8] c"Input data is missing padding, is truncated, or is otherwise corrupted.\00", align 1

; Function Attrs: nounwind uwtable
define internal i64 @pg_base64_decode(ptr noundef %0, i64 noundef %1, ptr noundef %2) #0 {
  %4 = alloca ptr, align 8
  %5 = alloca i64, align 8
  %6 = alloca ptr, align 8
  %7 = alloca ptr, align 8
  %8 = alloca ptr, align 8
  %9 = alloca ptr, align 8
  %10 = alloca i8, align 1
  %11 = alloca i32, align 4
  %12 = alloca i32, align 4
  %13 = alloca i32, align 4
  %14 = alloca i32, align 4
  store ptr %0, ptr %4, align 8
  store i64 %1, ptr %5, align 8
  store ptr %2, ptr %6, align 8
  call void @llvm.lifetime.start.p0(i64 8, ptr %7) #6
  %15 = load ptr, ptr %4, align 8
  %16 = load i64, ptr %5, align 8
  %17 = getelementptr inbounds nuw i8, ptr %15, i64 %16
  store ptr %17, ptr %7, align 8
  call void @llvm.lifetime.start.p0(i64 8, ptr %8) #6
  %18 = load ptr, ptr %4, align 8
  store ptr %18, ptr %8, align 8
  call void @llvm.lifetime.start.p0(i64 8, ptr %9) #6
  %19 = load ptr, ptr %6, align 8
  store ptr %19, ptr %9, align 8
  call void @llvm.lifetime.start.p0(i64 1, ptr %10) #6
  call void @llvm.lifetime.start.p0(i64 4, ptr %11) #6
  store i32 0, ptr %11, align 4
  call void @llvm.lifetime.start.p0(i64 4, ptr %12) #6
  store i32 0, ptr %12, align 4
  call void @llvm.lifetime.start.p0(i64 4, ptr %13) #6
  store i32 0, ptr %13, align 4
  call void @llvm.lifetime.start.p0(i64 4, ptr %14) #6
  store i32 0, ptr %14, align 4
  br label %20

20:                                               ; preds = %150, %43, %3
  %21 = load ptr, ptr %8, align 8
  %22 = load ptr, ptr %7, align 8
  %23 = icmp ult ptr %21, %22
  br i1 %23, label %24, label %151

24:                                               ; preds = %20
  %25 = load ptr, ptr %8, align 8
  %26 = getelementptr inbounds nuw i8, ptr %25, i32 1
  store ptr %26, ptr %8, align 8
  %27 = load i8, ptr %25, align 1
  store i8 %27, ptr %10, align 1
  %28 = load i8, ptr %10, align 1
  %29 = sext i8 %28 to i32
  %30 = icmp eq i32 %29, 32
  br i1 %30, label %43, label %31

31:                                               ; preds = %24
  %32 = load i8, ptr %10, align 1
  %33 = sext i8 %32 to i32
  %34 = icmp eq i32 %33, 9
  br i1 %34, label %43, label %35

35:                                               ; preds = %31
  %36 = load i8, ptr %10, align 1
  %37 = sext i8 %36 to i32
  %38 = icmp eq i32 %37, 10
  br i1 %38, label %43, label %39

39:                                               ; preds = %35
  %40 = load i8, ptr %10, align 1
  %41 = sext i8 %40 to i32
  %42 = icmp eq i32 %41, 13
  br i1 %42, label %43, label %44

43:                                               ; preds = %39, %35, %31, %24
  br label %20, !llvm.loop !9

44:                                               ; preds = %39
  %45 = load i8, ptr %10, align 1
  %46 = sext i8 %45 to i32
  %47 = icmp eq i32 %46, 61
  br i1 %47, label %48, label %74

48:                                               ; preds = %44
  %49 = load i32, ptr %14, align 4
  %50 = icmp ne i32 %49, 0
  br i1 %50, label %73, label %51

51:                                               ; preds = %48
  %52 = load i32, ptr %13, align 4
  %53 = icmp eq i32 %52, 2
  br i1 %53, label %54, label %55

54:                                               ; preds = %51
  store i32 1, ptr %14, align 4
  br label %72

55:                                               ; preds = %51
  %56 = load i32, ptr %13, align 4
  %57 = icmp eq i32 %56, 3
  br i1 %57, label %58, label %59

58:                                               ; preds = %55
  store i32 2, ptr %14, align 4
  br label %71

59:                                               ; preds = %55
  br label %60

60:                                               ; preds = %59
  br i1 true, label %61, label %63

61:                                               ; preds = %60
  %62 = call zeroext i1 @errstart_cold(i32 noundef 21, ptr noundef null) #7
  br i1 %62, label %65, label %68

63:                                               ; preds = %60
  %64 = call zeroext i1 @errstart(i32 noundef 21, ptr noundef null)
  br i1 %64, label %65, label %68

65:                                               ; preds = %63, %61
  %66 = call i32 @errcode(i32 noundef 50856066)
  %67 = call i32 (ptr, ...) @errmsg(ptr noundef @.str.11)
  call void @errfinish(ptr noundef @.str.1, i32 noundef 365, ptr noundef @__func__.pg_base64_decode)
  br label %68

68:                                               ; preds = %65, %63, %61
  unreachable

69:                                               ; No predecessors!
  br label %70

70:                                               ; preds = %69
  br label %71

71:                                               ; preds = %70, %58
  br label %72

72:                                               ; preds = %71, %54
  br label %73

73:                                               ; preds = %72, %48
  store i32 0, ptr %11, align 4
  br label %109

74:                                               ; preds = %44
  store i32 -1, ptr %11, align 4
  %75 = load i8, ptr %10, align 1
  %76 = sext i8 %75 to i32
  %77 = icmp sgt i32 %76, 0
  br i1 %77, label %78, label %88

78:                                               ; preds = %74
  %79 = load i8, ptr %10, align 1
  %80 = sext i8 %79 to i32
  %81 = icmp slt i32 %80, 127
  br i1 %81, label %82, label %88

82:                                               ; preds = %78
  %83 = load i8, ptr %10, align 1
  %84 = zext i8 %83 to i64
  %85 = getelementptr inbounds nuw [128 x i8], ptr @b64lookup, i64 0, i64 %84
  %86 = load i8, ptr %85, align 1
  %87 = sext i8 %86 to i32
  store i32 %87, ptr %11, align 4
  br label %88

88:                                               ; preds = %82, %78, %74
  %89 = load i32, ptr %11, align 4
  %90 = icmp slt i32 %89, 0
  br i1 %90, label %91, label %108

91:                                               ; preds = %88
  br label %92

92:                                               ; preds = %91
  br i1 true, label %93, label %95

93:                                               ; preds = %92
  %94 = call zeroext i1 @errstart_cold(i32 noundef 21, ptr noundef null) #7
  br i1 %94, label %97, label %105

95:                                               ; preds = %92
  %96 = call zeroext i1 @errstart(i32 noundef 21, ptr noundef null)
  br i1 %96, label %97, label %105

97:                                               ; preds = %95, %93
  %98 = call i32 @errcode(i32 noundef 50856066)
  %99 = load ptr, ptr %8, align 8
  %100 = getelementptr inbounds i8, ptr %99, i64 -1
  %101 = call i32 @pg_mblen(ptr noundef %100)
  %102 = load ptr, ptr %8, align 8
  %103 = getelementptr inbounds i8, ptr %102, i64 -1
  %104 = call i32 (ptr, ...) @errmsg(ptr noundef @.str.12, i32 noundef %101, ptr noundef %103)
  call void @errfinish(ptr noundef @.str.1, i32 noundef 378, ptr noundef @__func__.pg_base64_decode)
  br label %105

105:                                              ; preds = %97, %95, %93
  unreachable

106:                                              ; No predecessors!
  br label %107

107:                                              ; preds = %106
  br label %108

108:                                              ; preds = %107, %88
  br label %109

109:                                              ; preds = %108, %73
  %110 = load i32, ptr %12, align 4
  %111 = shl i32 %110, 6
  %112 = load i32, ptr %11, align 4
  %113 = add i32 %111, %112
  store i32 %113, ptr %12, align 4
  %114 = load i32, ptr %13, align 4
  %115 = add i32 %114, 1
  store i32 %115, ptr %13, align 4
  %116 = load i32, ptr %13, align 4
  %117 = icmp eq i32 %116, 4
  br i1 %117, label %118, label %150

118:                                              ; preds = %109
  %119 = load i32, ptr %12, align 4
  %120 = lshr i32 %119, 16
  %121 = and i32 %120, 255
  %122 = trunc i32 %121 to i8
  %123 = load ptr, ptr %9, align 8
  %124 = getelementptr inbounds nuw i8, ptr %123, i32 1
  store ptr %124, ptr %9, align 8
  store i8 %122, ptr %123, align 1
  %125 = load i32, ptr %14, align 4
  %126 = icmp eq i32 %125, 0
  br i1 %126, label %130, label %127

127:                                              ; preds = %118
  %128 = load i32, ptr %14, align 4
  %129 = icmp sgt i32 %128, 1
  br i1 %129, label %130, label %137

130:                                              ; preds = %127, %118
  %131 = load i32, ptr %12, align 4
  %132 = lshr i32 %131, 8
  %133 = and i32 %132, 255
  %134 = trunc i32 %133 to i8
  %135 = load ptr, ptr %9, align 8
  %136 = getelementptr inbounds nuw i8, ptr %135, i32 1
  store ptr %136, ptr %9, align 8
  store i8 %134, ptr %135, align 1
  br label %137

137:                                              ; preds = %130, %127
  %138 = load i32, ptr %14, align 4
  %139 = icmp eq i32 %138, 0
  br i1 %139, label %143, label %140

140:                                              ; preds = %137
  %141 = load i32, ptr %14, align 4
  %142 = icmp sgt i32 %141, 2
  br i1 %142, label %143, label %149

143:                                              ; preds = %140, %137
  %144 = load i32, ptr %12, align 4
  %145 = and i32 %144, 255
  %146 = trunc i32 %145 to i8
  %147 = load ptr, ptr %9, align 8
  %148 = getelementptr inbounds nuw i8, ptr %147, i32 1
  store ptr %148, ptr %9, align 8
  store i8 %146, ptr %147, align 1
  br label %149

149:                                              ; preds = %143, %140
  store i32 0, ptr %12, align 4
  store i32 0, ptr %13, align 4
  br label %150

150:                                              ; preds = %149, %109
  br label %20, !llvm.loop !9

151:                                              ; preds = %20
  %152 = load i32, ptr %13, align 4
  %153 = icmp ne i32 %152, 0
  br i1 %153, label %154, label %167

154:                                              ; preds = %151
  br label %155

155:                                              ; preds = %154
  br i1 true, label %156, label %158

156:                                              ; preds = %155
  %157 = call zeroext i1 @errstart_cold(i32 noundef 21, ptr noundef null) #7
  br i1 %157, label %160, label %164

158:                                              ; preds = %155
  %159 = call zeroext i1 @errstart(i32 noundef 21, ptr noundef null)
  br i1 %159, label %160, label %164

160:                                              ; preds = %158, %156
  %161 = call i32 @errcode(i32 noundef 50856066)
  %162 = call i32 (ptr, ...) @errmsg(ptr noundef @.str.13)
  %163 = call i32 (ptr, ...) @errhint(ptr noundef @.str.14)
  call void @errfinish(ptr noundef @.str.1, i32 noundef 399, ptr noundef @__func__.pg_base64_decode)
  br label %164

164:                                              ; preds = %160, %158, %156
  unreachable

165:                                              ; No predecessors!
  br label %166

166:                                              ; preds = %165
  br label %167

167:                                              ; preds = %166, %151
  %168 = load ptr, ptr %9, align 8
  %169 = load ptr, ptr %6, align 8
  %170 = ptrtoint ptr %168 to i64
  %171 = ptrtoint ptr %169 to i64
  %172 = sub i64 %170, %171
  call void @llvm.lifetime.end.p0(i64 4, ptr %14) #6
  call void @llvm.lifetime.end.p0(i64 4, ptr %13) #6
  call void @llvm.lifetime.end.p0(i64 4, ptr %12) #6
  call void @llvm.lifetime.end.p0(i64 4, ptr %11) #6
  call void @llvm.lifetime.end.p0(i64 1, ptr %10) #6
  call void @llvm.lifetime.end.p0(i64 8, ptr %9) #6
  call void @llvm.lifetime.end.p0(i64 8, ptr %8) #6
  call void @llvm.lifetime.end.p0(i64 8, ptr %7) #6
  ret i64 %172
}